target datalayout = "e-m:e-p270:32:32-p271:32:32-p272:64:64-i64:64-i128:128-f80:128-n8:16:32:64-S128"
target triple = "x86_64-pc-linux-gnu"

%struct.nghttp2_frame_hd = type { i64, i32, i8, i8, i8 }

; Function Attrs: nounwind uwtable
define hidden i64 @nghttp2_frame_trail_padlen(ptr noundef %0, i64 noundef %1) #0 {
  %3 = alloca i64, align 8
  %4 = alloca ptr, align 8
  %5 = alloca i64, align 8
  store ptr %0, ptr %4, align 8, !tbaa !8
  store i64 %1, ptr %5, align 8, !tbaa !18
  %6 = load i64, ptr %5, align 8, !tbaa !18
  %7 = icmp eq i64 %6, 0
  br i1 %7, label %8, label %9

8:                                                ; preds = %2
  store i64 0, ptr %3, align 8
  br label %20

9:                                                ; preds = %2
  %10 = load i64, ptr %5, align 8, !tbaa !18
  %11 = load ptr, ptr %4, align 8, !tbaa !8
  %12 = getelementptr inbounds nuw %struct.nghttp2_frame_hd, ptr %11, i32 0, i32 3
  %13 = load i8, ptr %12, align 1, !tbaa !14
  %14 = zext i8 %13 to i32
  %15 = and i32 %14, 8
  %16 = icmp sgt i32 %15, 0
  %17 = zext i1 %16 to i32
  %18 = sext i32 %17 to i64
  %19 = sub i64 %10, %18
  store i64 %19, ptr %3, align 8
  br label %20

20:                                               ; preds = %9, %8
  %21 = load i64, ptr %3, align 8
  ret i64 %21
}