; Function Attrs: mustprogress nofree norecurse nosync nounwind willreturn memory(argmem: read) uwtable
define hidden i64 @nghttp2_frame_trail_padlen(ptr noundef readonly captures(none) %0, i64 noundef %1) local_unnamed_addr #7 {
  %3 = icmp eq i64 %1, 0
  br i1 %3, label %10, label %4

4:                                                ; preds = %2
  %5 = getelementptr inbounds nuw i8, ptr %0, i64 13
  %6 = load i8, ptr %5, align 1, !tbaa !10
  %7 = lshr i8 %6, 3
  %.lobit = and i8 %7, 1
  %8 = zext nneg i8 %.lobit to i64
  %9 = sub nuw i64 %1, %8
  br label %10

10:                                               ; preds = %2, %4
  %.0 = phi i64 [ %9, %4 ], [ 0, %2 ]
  ret i64 %.0
}